target datalayout = "e-m:e-p270:32:32-p271:32:32-p272:64:64-i64:64-i128:128-f80:128-n8:16:32:64-S128"
target triple = "x86_64-pc-linux-gnu"

%struct.FT_BBox_ = type { i64, i64, i64, i64 }
%struct.CFF_FontRecDictRec_ = type { i32, i32, i32, i32, i32, i32, i8, i64, i64, i64, i32, i32, %struct.FT_Matrix_, i8, i64, %struct.FT_Vector_, i64, %struct.FT_BBox_, i64, i64, i64, i64, i64, i64, i64, i32, i32, i32, i64, i64, i64, i64, i64, i64, i64, i64, i32, i16, i16, i64, i32 }
%struct.FT_Matrix_ = type { i64, i64, i64, i64 }
%struct.FT_Vector_ = type { i64, i64 }
%struct.CFF_ParserRec_ = type { ptr, ptr, ptr, ptr, ptr, ptr, i32, i32, ptr, i16, i16 }

; Function Attrs: nounwind uwtable
define internal i32 @cff_parse_cid_ros(ptr noundef %0) #0 {
  %2 = alloca ptr, align 8
  %3 = alloca ptr, align 8
  %4 = alloca ptr, align 8
  %5 = alloca i32, align 4
  store ptr %0, ptr %2, align 8
  %6 = load ptr, ptr %2, align 8
  %7 = getelementptr inbounds %struct.CFF_ParserRec_, ptr %6, i32 0, i32 8
  %8 = load ptr, ptr %7, align 8
  store ptr %8, ptr %3, align 8
  %9 = load ptr, ptr %2, align 8
  %10 = getelementptr inbounds %struct.CFF_ParserRec_, ptr %9, i32 0, i32 4
  %11 = load ptr, ptr %10, align 8
  store ptr %11, ptr %4, align 8
  store i32 161, ptr %5, align 4
  %12 = load ptr, ptr %2, align 8
  %13 = getelementptr inbounds %struct.CFF_ParserRec_, ptr %12, i32 0, i32 5
  %14 = load ptr, ptr %13, align 8
  %15 = load ptr, ptr %2, align 8
  %16 = getelementptr inbounds %struct.CFF_ParserRec_, ptr %15, i32 0, i32 4
  %17 = load ptr, ptr %16, align 8
  %18 = getelementptr inbounds ptr, ptr %17, i64 3
  %19 = icmp uge ptr %14, %18
  br i1 %19, label %20, label %59

20:                                               ; preds = %1
  %21 = load ptr, ptr %2, align 8
  %22 = load ptr, ptr %4, align 8
  %23 = getelementptr inbounds ptr, ptr %22, i32 1
  store ptr %23, ptr %4, align 8
  %24 = call i64 @cff_parse_num(ptr noundef %21, ptr noundef %22)
  %25 = trunc i64 %24 to i32
  %26 = load ptr, ptr %3, align 8
  %27 = getelementptr inbounds %struct.CFF_FontRecDictRec_, ptr %26, i32 0, i32 26
  store i32 %25, ptr %27, align 4
  %28 = load ptr, ptr %2, align 8
  %29 = load ptr, ptr %4, align 8
  %30 = getelementptr inbounds ptr, ptr %29, i32 1
  store ptr %30, ptr %4, align 8
  %31 = call i64 @cff_parse_num(ptr noundef %28, ptr noundef %29)
  %32 = trunc i64 %31 to i32
  %33 = load ptr, ptr %3, align 8
  %34 = getelementptr inbounds %struct.CFF_FontRecDictRec_, ptr %33, i32 0, i32 27
  store i32 %32, ptr %34, align 8
  %35 = load ptr, ptr %4, align 8
  %36 = load ptr, ptr %35, align 8
  %37 = load i8, ptr %36, align 1
  %38 = zext i8 %37 to i32
  %39 = icmp eq i32 %38, 30
  br i1 %39, label %40, label %43

40:                                               ; preds = %20
  br label %41

41:                                               ; preds = %40
  br label %42

42:                                               ; preds = %41
  br label %43

43:                                               ; preds = %42, %20
  %44 = load ptr, ptr %2, align 8
  %45 = load ptr, ptr %4, align 8
  %46 = call i64 @cff_parse_num(ptr noundef %44, ptr noundef %45)
  %47 = load ptr, ptr %3, align 8
  %48 = getelementptr inbounds %struct.CFF_FontRecDictRec_, ptr %47, i32 0, i32 28
  store i64 %46, ptr %48, align 8
  %49 = load ptr, ptr %3, align 8
  %50 = getelementptr inbounds %struct.CFF_FontRecDictRec_, ptr %49, i32 0, i32 28
  %51 = load i64, ptr %50, align 8
  %52 = icmp slt i64 %51, 0
  br i1 %52, label %53, label %56

53:                                               ; preds = %43
  br label %54

54:                                               ; preds = %53
  br label %55

55:                                               ; preds = %54
  br label %56

56:                                               ; preds = %55, %43
  store i32 0, ptr %5, align 4
  br label %57

57:                                               ; preds = %56
  br label %58

58:                                               ; preds = %57
  br label %59

59:                                               ; preds = %58, %1
  %60 = load i32, ptr %5, align 4
  ret i32 %60
}