; Function Attrs: nounwind uwtable
define internal range(i32 0, 162) i32 @cff_parse_cid_ros(ptr nocapture noundef readonly %0) #4 {
  %2 = getelementptr inbounds i8, ptr %0, i64 32
  %3 = load ptr, ptr %2, align 8
  %4 = getelementptr inbounds i8, ptr %0, i64 40
  %5 = load ptr, ptr %4, align 8
  %6 = getelementptr inbounds i8, ptr %3, i64 24
  %.not = icmp ult ptr %5, %6
  br i1 %.not, label %20, label %7

7:                                                ; preds = %1
  %8 = getelementptr inbounds i8, ptr %0, i64 56
  %9 = load ptr, ptr %8, align 8
  %10 = getelementptr inbounds i8, ptr %3, i64 8
  %.val16 = load ptr, ptr %3, align 8
  %11 = tail call fastcc i64 @cff_parse_num(ptr noundef nonnull %0, ptr %.val16)
  %12 = trunc i64 %11 to i32
  %13 = getelementptr inbounds i8, ptr %9, i64 228
  store i32 %12, ptr %13, align 4
  %14 = getelementptr inbounds i8, ptr %3, i64 16
  %.val15 = load ptr, ptr %10, align 8
  %15 = tail call fastcc i64 @cff_parse_num(ptr noundef nonnull %0, ptr %.val15)
  %16 = trunc i64 %15 to i32
  %17 = getelementptr inbounds i8, ptr %9, i64 232
  store i32 %16, ptr %17, align 8
  %.val = load ptr, ptr %14, align 8
  %18 = tail call fastcc i64 @cff_parse_num(ptr noundef nonnull %0, ptr %.val)
  %19 = getelementptr inbounds i8, ptr %9, i64 240
  store i64 %18, ptr %19, align 8
  br label %20

20:                                               ; preds = %7, %1
  %.0 = phi i32 [ 0, %7 ], [ 161, %1 ]
  ret i32 %.0
}